(lp0
(S'cppflags'
p1
ccopy_reg
_reconstructor
p2
(cino.utils
SpaceList
p3
c__builtin__
list
p4
(lp5
S'-mmcu=atmega328p'
p6
aS'-DF_CPU=16000000L'
p7
aS'-DARDUINO=101'
p8
aS'-I/usr/share/arduino/hardware/arduino/cores/arduino'
p9
aS'-ffunction-sections'
p10
aS'-fdata-sections'
p11
aS'-g'
p12
aS'-Os'
p13
aS'-w'
p14
aS'-I/usr/share/arduino/hardware/arduino/variants/eightanaloginputs'
p15
aS'-Ilib/PCF8574'
p16
aS'-I/usr/share/arduino/libraries/Wire'
p17
aS'-I/usr/share/arduino/libraries/Wire/utility'
p18
aS'-I/usr/share/arduino/hardware/arduino/cores/arduino'
p19
atp20
Rp21
tp22
a(S'version.txt'
p23
S'/usr/share/arduino/lib/version.txt'
p24
tp25
a(S'used_libs'
p26
(lp27
S'lib/PCF8574'
p28
aS'/usr/share/arduino/libraries/Wire'
p29
aS'/usr/share/arduino/hardware/arduino/cores/arduino'
p30
atp31
a(S'cc'
p32
S'/usr/bin/avr-gcc'
p33
tp34
a(S'make'
p35
S'/usr/bin/make'
p36
tp37
a(S'build_dir'
p38
S'.build/nano328'
p39
tp40
a(S'arduino_core_dir'
p41
g30
tp42
a(S'boards.txt'
p43
S'/usr/share/arduino/hardware/arduino/boards.txt'
p44
tp45
a(S'cxxflags'
p46
g2
(g3
g4
(lp47
S'-fno-exceptions'
p48
atp49
Rp50
tp51
a(S'arduino_variants_dir'
p52
S'/usr/share/arduino/hardware/arduino/variants'
p53
tp54
a(S'deps'
p55
g2
(g3
g4
(lp56
S'.build/nano328/src/dependencies.d'
p57
aS'.build/nano328/arduino/dependencies.d'
p58
aS'.build/nano328/PCF8574/dependencies.d'
p59
aS'.build/nano328/Wire/dependencies.d'
p60
atp61
Rp62
tp63
a(S'ar'
p64
S'/usr/bin/avr-ar'
p65
tp66
a(S'names'
p67
(dp68
S'cpp'
p69
S'%s.cpp'
p70
sS'obj'
p71
S'%s.o'
p72
sg55
S'%s.d'
p73
sS'lib'
p74
S'lib%s.a'
p75
stp76
a(S'cflags'
p77
g2
(g3
g4
(lp78
tp79
Rp80
tp81
a(S'ldflags'
p82
g2
(g3
g4
(lp83
g6
aS'-Wl,-Os'
p84
aS'-Wl,--gc-sections'
p85
atp86
Rp87
tp88
a(S'arduino_libraries_dir'
p89
S'/usr/share/arduino/libraries'
p90
tp91
a(S'arduino_lib_version'
p92
g2
(cino.environment
Version
p93
c__builtin__
tuple
p94
(I1
I0
I1
tp95
tp96
Rp97
tp98
a(S'objcopy'
p99
S'/usr/bin/avr-objcopy'
p100
tp101
a(S'board_models'
p102
cino.environment
BoardModels
p103
((lp104
(lp105
S'uno'
p106
a(dp107
S'build'
p108
(dp109
S'core'
p110
S'arduino'
p111
sS'mcu'
p112
S'atmega328p'
p113
sS'f_cpu'
p114
S'16000000L'
p115
sS'variant'
p116
S'standard'
p117
ssS'bootloader'
p118
(dp119
S'extended_fuses'
p120
S'0x05'
p121
sS'high_fuses'
p122
S'0xde'
p123
sS'low_fuses'
p124
S'0xff'
p125
sS'lock_bits'
p126
S'0x0F'
p127
sS'file'
p128
S'optiboot_atmega328.hex'
p129
sS'path'
p130
S'optiboot'
p131
sS'unlock_bits'
p132
S'0x3F'
p133
ssS'name'
p134
S'Arduino Uno'
p135
sS'upload'
p136
(dp137
S'speed'
p138
S'115200'
p139
sS'maximum_size'
p140
S'32256'
p141
sS'protocol'
p142
S'arduino'
p143
ssaa(lp144
S'atmega328'
p145
a(dp146
S'build'
p147
(dp148
S'core'
p149
S'arduino'
p150
sS'mcu'
p151
S'atmega328p'
p152
sS'f_cpu'
p153
S'16000000L'
p154
sS'variant'
p155
S'standard'
p156
ssS'bootloader'
p157
(dp158
S'extended_fuses'
p159
S'0x05'
p160
sS'high_fuses'
p161
S'0xDA'
p162
sS'low_fuses'
p163
S'0xFF'
p164
sS'lock_bits'
p165
S'0x0F'
p166
sS'file'
p167
S'ATmegaBOOT_168_atmega328.hex'
p168
sS'path'
p169
S'atmega'
p170
sS'unlock_bits'
p171
S'0x3F'
p172
ssS'name'
p173
S'Arduino Duemilanove w/ ATmega328'
p174
sS'upload'
p175
(dp176
S'speed'
p177
S'57600'
p178
sS'maximum_size'
p179
S'30720'
p180
sS'protocol'
p181
S'arduino'
p182
ssaa(lp183
S'diecimila'
p184
a(dp185
S'build'
p186
(dp187
S'core'
p188
S'arduino'
p189
sS'mcu'
p190
S'atmega168'
p191
sS'f_cpu'
p192
S'16000000L'
p193
sS'variant'
p194
S'standard'
p195
ssS'bootloader'
p196
(dp197
S'extended_fuses'
p198
S'0x00'
p199
sS'high_fuses'
p200
S'0xdd'
p201
sS'low_fuses'
p202
S'0xff'
p203
sS'lock_bits'
p204
S'0x0F'
p205
sS'file'
p206
S'ATmegaBOOT_168_diecimila.hex'
p207
sS'path'
p208
S'atmega'
p209
sS'unlock_bits'
p210
S'0x3F'
p211
ssS'name'
p212
S'Arduino Diecimila or Duemilanove w/ ATmega168'
p213
sS'upload'
p214
(dp215
S'speed'
p216
S'19200'
p217
sS'maximum_size'
p218
S'14336'
p219
sS'protocol'
p220
S'arduino'
p221
ssaa(lp222
S'nano328'
p223
a(dp224
S'build'
p225
(dp226
S'core'
p227
S'arduino'
p228
sS'mcu'
p229
S'atmega328p'
p230
sS'f_cpu'
p231
S'16000000L'
p232
sS'variant'
p233
S'eightanaloginputs'
p234
ssS'bootloader'
p235
(dp236
S'extended_fuses'
p237
S'0x05'
p238
sS'high_fuses'
p239
S'0xDA'
p240
sS'low_fuses'
p241
S'0xFF'
p242
sS'lock_bits'
p243
S'0x0F'
p244
sS'file'
p245
S'ATmegaBOOT_168_atmega328.hex'
p246
sS'path'
p247
S'atmega'
p248
sS'unlock_bits'
p249
S'0x3F'
p250
ssS'name'
p251
S'Arduino Nano w/ ATmega328'
p252
sS'upload'
p253
(dp254
S'speed'
p255
S'57600'
p256
sS'maximum_size'
p257
S'30720'
p258
sS'protocol'
p259
S'arduino'
p260
ssaa(lp261
S'nano'
p262
a(dp263
S'build'
p264
(dp265
S'core'
p266
S'arduino'
p267
sS'mcu'
p268
S'atmega168'
p269
sS'f_cpu'
p270
S'16000000L'
p271
sS'variant'
p272
S'eightanaloginputs'
p273
ssS'bootloader'
p274
(dp275
S'extended_fuses'
p276
S'0x00'
p277
sS'high_fuses'
p278
S'0xdd'
p279
sS'low_fuses'
p280
S'0xff'
p281
sS'lock_bits'
p282
S'0x0F'
p283
sS'file'
p284
S'ATmegaBOOT_168_diecimila.hex'
p285
sS'path'
p286
S'atmega'
p287
sS'unlock_bits'
p288
S'0x3F'
p289
ssS'name'
p290
S'Arduino Nano w/ ATmega168'
p291
sS'upload'
p292
(dp293
S'speed'
p294
S'19200'
p295
sS'maximum_size'
p296
S'14336'
p297
sS'protocol'
p298
S'arduino'
p299
ssaa(lp300
S'mega2560'
p301
a(dp302
S'build'
p303
(dp304
S'core'
p305
S'arduino'
p306
sS'mcu'
p307
S'atmega2560'
p308
sS'f_cpu'
p309
S'16000000L'
p310
sS'variant'
p311
S'mega'
p312
ssS'bootloader'
p313
(dp314
S'extended_fuses'
p315
S'0xFD'
p316
sS'high_fuses'
p317
S'0xD8'
p318
sS'low_fuses'
p319
S'0xFF'
p320
sS'lock_bits'
p321
S'0x0F'
p322
sS'file'
p323
S'stk500boot_v2_mega2560.hex'
p324
sS'path'
p325
S'stk500v2'
p326
sS'unlock_bits'
p327
S'0x3F'
p328
ssS'name'
p329
S'Arduino Mega 2560 or Mega ADK'
p330
sS'upload'
p331
(dp332
S'speed'
p333
S'115200'
p334
sS'maximum_size'
p335
S'258048'
p336
sS'protocol'
p337
S'stk500v2'
p338
ssaa(lp339
S'mega'
p340
a(dp341
S'build'
p342
(dp343
S'core'
p344
S'arduino'
p345
sS'mcu'
p346
S'atmega1280'
p347
sS'f_cpu'
p348
S'16000000L'
p349
sS'variant'
p350
S'mega'
p351
ssS'bootloader'
p352
(dp353
S'extended_fuses'
p354
S'0xF5'
p355
sS'high_fuses'
p356
S'0xDA'
p357
sS'low_fuses'
p358
S'0xFF'
p359
sS'lock_bits'
p360
S'0x0F'
p361
sS'file'
p362
S'ATmegaBOOT_168_atmega1280.hex'
p363
sS'path'
p364
S'atmega'
p365
sS'unlock_bits'
p366
S'0x3F'
p367
ssS'name'
p368
S'Arduino Mega (ATmega1280)'
p369
sS'upload'
p370
(dp371
S'speed'
p372
S'57600'
p373
sS'maximum_size'
p374
S'126976'
p375
sS'protocol'
p376
S'arduino'
p377
ssaa(lp378
S'leonardo'
p379
a(dp380
S'build'
p381
(dp382
S'core'
p383
S'arduino'
p384
sS'f_cpu'
p385
S'16000000L'
p386
sS'vid'
p387
S'0x2341'
p388
sS'pid'
p389
S'0x8036'
p390
sS'variant'
p391
S'leonardo'
p392
sS'mcu'
p393
S'atmega32u4'
p394
ssS'bootloader'
p395
(dp396
S'extended_fuses'
p397
S'0xcb'
p398
sS'high_fuses'
p399
S'0xd8'
p400
sS'low_fuses'
p401
S'0xff'
p402
sS'lock_bits'
p403
S'0x2F'
p404
sS'file'
p405
S'Caterina-Leonardo.hex'
p406
sS'path'
p407
S'caterina'
p408
sS'unlock_bits'
p409
S'0x3F'
p410
ssS'name'
p411
S'Arduino Leonardo'
p412
sS'upload'
p413
(dp414
S'speed'
p415
S'57600'
p416
sS'maximum_size'
p417
S'28672'
p418
sS'protocol'
p419
S'avr109'
p420
sS'disable_flushing'
p421
S'true'
p422
ssaa(lp423
S'mini328'
p424
a(dp425
S'build'
p426
(dp427
S'core'
p428
S'arduino'
p429
sS'mcu'
p430
S'atmega328p'
p431
sS'f_cpu'
p432
S'16000000L'
p433
sS'variant'
p434
S'eightanaloginputs'
p435
ssS'bootloader'
p436
(dp437
S'extended_fuses'
p438
S'0x05'
p439
sS'high_fuses'
p440
S'0xd8'
p441
sS'low_fuses'
p442
S'0xff'
p443
sS'lock_bits'
p444
S'0x0F'
p445
sS'file'
p446
S'optiboot_atmega328-Mini.hex'
p447
sS'path'
p448
S'optiboot'
p449
sS'unlock_bits'
p450
S'0x3F'
p451
ssS'name'
p452
S'Arduino Mini w/ ATmega328'
p453
sS'upload'
p454
(dp455
S'speed'
p456
S'115200'
p457
sS'maximum_size'
p458
S'28672'
p459
sS'protocol'
p460
S'arduino'
p461
ssaa(lp462
S'mini'
p463
a(dp464
S'build'
p465
(dp466
S'core'
p467
S'arduino'
p468
sS'mcu'
p469
S'atmega168'
p470
sS'f_cpu'
p471
S'16000000L'
p472
sS'variant'
p473
S'eightanaloginputs'
p474
ssS'bootloader'
p475
(dp476
S'extended_fuses'
p477
S'0x00'
p478
sS'high_fuses'
p479
S'0xdd'
p480
sS'low_fuses'
p481
S'0xff'
p482
sS'lock_bits'
p483
S'0x0F'
p484
sS'file'
p485
S'ATmegaBOOT_168_ng.hex'
p486
sS'path'
p487
S'atmega'
p488
sS'unlock_bits'
p489
S'0x3F'
p490
ssS'name'
p491
S'Arduino Mini w/ ATmega168'
p492
sS'upload'
p493
(dp494
S'speed'
p495
S'19200'
p496
sS'maximum_size'
p497
S'14336'
p498
sS'protocol'
p499
S'arduino'
p500
ssaa(lp501
S'ethernet'
p502
a(dp503
S'build'
p504
(dp505
S'f_cpu'
p506
S'16000000L'
p507
sS'mcu'
p508
S'atmega328p'
p509
sS'variant'
p510
S'standard'
p511
sS'core'
p512
S'arduino'
p513
ssS'bootloader'
p514
(dp515
S'extended_fuses'
p516
S'0x05'
p517
sS'high_fuses'
p518
S'0xde'
p519
sS'low_fuses'
p520
S'0xff'
p521
sS'lock_bits'
p522
S'0x0F'
p523
sS'file'
p524
S'optiboot_atmega328.hex'
p525
sS'path'
p526
S'optiboot'
p527
sS'unlock_bits'
p528
S'0x3F'
p529
ssS'name'
p530
S'Arduino Ethernet'
p531
sS'upload'
p532
(dp533
S'speed'
p534
S'115200'
p535
sS'maximum_size'
p536
S'32256'
p537
sS'protocol'
p538
S'arduino'
p539
ssaa(lp540
S'fio'
p541
a(dp542
S'build'
p543
(dp544
S'core'
p545
S'arduino'
p546
sS'mcu'
p547
S'atmega328p'
p548
sS'f_cpu'
p549
S'8000000L'
p550
sS'variant'
p551
S'eightanaloginputs'
p552
ssS'bootloader'
p553
(dp554
S'extended_fuses'
p555
S'0x05'
p556
sS'high_fuses'
p557
S'0xDA'
p558
sS'low_fuses'
p559
S'0xFF'
p560
sS'lock_bits'
p561
S'0x0F'
p562
sS'file'
p563
S'ATmegaBOOT_168_atmega328_pro_8MHz.hex'
p564
sS'path'
p565
S'arduino:atmega'
p566
sS'unlock_bits'
p567
S'0x3F'
p568
ssS'name'
p569
S'Arduino Fio'
p570
sS'upload'
p571
(dp572
S'speed'
p573
S'57600'
p574
sS'maximum_size'
p575
S'30720'
p576
sS'protocol'
p577
S'arduino'
p578
ssaa(lp579
S'bt328'
p580
a(dp581
S'build'
p582
(dp583
S'core'
p584
S'arduino'
p585
sS'mcu'
p586
S'atmega328p'
p587
sS'f_cpu'
p588
S'16000000L'
p589
sS'variant'
p590
S'eightanaloginputs'
p591
ssS'bootloader'
p592
(dp593
S'extended_fuses'
p594
S'0x05'
p595
sS'high_fuses'
p596
S'0xd8'
p597
sS'low_fuses'
p598
S'0xff'
p599
sS'lock_bits'
p600
S'0x0F'
p601
sS'file'
p602
S'ATmegaBOOT_168_atmega328_bt.hex'
p603
sS'path'
p604
S'bt'
p605
sS'unlock_bits'
p606
S'0x3F'
p607
ssS'name'
p608
S'Arduino BT w/ ATmega328'
p609
sS'upload'
p610
(dp611
S'speed'
p612
S'19200'
p613
sS'maximum_size'
p614
S'28672'
p615
sS'protocol'
p616
S'arduino'
p617
sS'disable_flushing'
p618
S'true'
p619
ssaa(lp620
S'bt'
p621
a(dp622
S'build'
p623
(dp624
S'core'
p625
S'arduino'
p626
sS'mcu'
p627
S'atmega168'
p628
sS'f_cpu'
p629
S'16000000L'
p630
sS'variant'
p631
S'eightanaloginputs'
p632
ssS'bootloader'
p633
(dp634
S'extended_fuses'
p635
S'0x00'
p636
sS'high_fuses'
p637
S'0xdd'
p638
sS'low_fuses'
p639
S'0xff'
p640
sS'lock_bits'
p641
S'0x0F'
p642
sS'file'
p643
S'ATmegaBOOT_168.hex'
p644
sS'path'
p645
S'bt'
p646
sS'unlock_bits'
p647
S'0x3F'
p648
ssS'name'
p649
S'Arduino BT w/ ATmega168'
p650
sS'upload'
p651
(dp652
S'speed'
p653
S'19200'
p654
sS'maximum_size'
p655
S'14336'
p656
sS'protocol'
p657
S'arduino'
p658
sS'disable_flushing'
p659
S'true'
p660
ssaa(lp661
S'lilypad328'
p662
a(dp663
S'build'
p664
(dp665
S'core'
p666
S'arduino'
p667
sS'mcu'
p668
S'atmega328p'
p669
sS'f_cpu'
p670
S'8000000L'
p671
sS'variant'
p672
S'standard'
p673
ssS'bootloader'
p674
(dp675
S'extended_fuses'
p676
S'0x05'
p677
sS'high_fuses'
p678
S'0xDA'
p679
sS'low_fuses'
p680
S'0xFF'
p681
sS'lock_bits'
p682
S'0x0F'
p683
sS'file'
p684
S'ATmegaBOOT_168_atmega328_pro_8MHz.hex'
p685
sS'path'
p686
S'atmega'
p687
sS'unlock_bits'
p688
S'0x3F'
p689
ssS'name'
p690
S'LilyPad Arduino w/ ATmega328'
p691
sS'upload'
p692
(dp693
S'speed'
p694
S'57600'
p695
sS'maximum_size'
p696
S'30720'
p697
sS'protocol'
p698
S'arduino'
p699
ssaa(lp700
S'lilypad'
p701
a(dp702
S'build'
p703
(dp704
S'core'
p705
S'arduino'
p706
sS'mcu'
p707
S'atmega168'
p708
sS'f_cpu'
p709
S'8000000L'
p710
sS'variant'
p711
S'standard'
p712
ssS'bootloader'
p713
(dp714
S'extended_fuses'
p715
S'0x00'
p716
sS'high_fuses'
p717
S'0xdd'
p718
sS'low_fuses'
p719
S'0xe2'
p720
sS'lock_bits'
p721
S'0x0F'
p722
sS'file'
p723
S'LilyPadBOOT_168.hex'
p724
sS'path'
p725
S'lilypad'
p726
sS'unlock_bits'
p727
S'0x3F'
p728
ssS'name'
p729
S'LilyPad Arduino w/ ATmega168'
p730
sS'upload'
p731
(dp732
S'speed'
p733
S'19200'
p734
sS'maximum_size'
p735
S'14336'
p736
sS'protocol'
p737
S'arduino'
p738
ssaa(lp739
S'pro5v328'
p740
a(dp741
S'build'
p742
(dp743
S'core'
p744
S'arduino'
p745
sS'mcu'
p746
S'atmega328p'
p747
sS'f_cpu'
p748
S'16000000L'
p749
sS'variant'
p750
S'standard'
p751
ssS'bootloader'
p752
(dp753
S'extended_fuses'
p754
S'0x05'
p755
sS'high_fuses'
p756
S'0xDA'
p757
sS'low_fuses'
p758
S'0xFF'
p759
sS'lock_bits'
p760
S'0x0F'
p761
sS'file'
p762
S'ATmegaBOOT_168_atmega328.hex'
p763
sS'path'
p764
S'atmega'
p765
sS'unlock_bits'
p766
S'0x3F'
p767
ssS'name'
p768
S'Arduino Pro or Pro Mini (5V, 16 MHz) w/ ATmega328'
p769
sS'upload'
p770
(dp771
S'speed'
p772
S'57600'
p773
sS'maximum_size'
p774
S'30720'
p775
sS'protocol'
p776
S'arduino'
p777
ssaa(lp778
S'pro5v'
p779
a(dp780
S'build'
p781
(dp782
S'core'
p783
S'arduino'
p784
sS'mcu'
p785
S'atmega168'
p786
sS'f_cpu'
p787
S'16000000L'
p788
sS'variant'
p789
S'standard'
p790
ssS'bootloader'
p791
(dp792
S'extended_fuses'
p793
S'0x00'
p794
sS'high_fuses'
p795
S'0xdd'
p796
sS'low_fuses'
p797
S'0xff'
p798
sS'lock_bits'
p799
S'0x0F'
p800
sS'file'
p801
S'ATmegaBOOT_168_diecimila.hex'
p802
sS'path'
p803
S'atmega'
p804
sS'unlock_bits'
p805
S'0x3F'
p806
ssS'name'
p807
S'Arduino Pro or Pro Mini (5V, 16 MHz) w/ ATmega168'
p808
sS'upload'
p809
(dp810
S'speed'
p811
S'19200'
p812
sS'maximum_size'
p813
S'14336'
p814
sS'protocol'
p815
S'arduino'
p816
ssaa(lp817
S'pro328'
p818
a(dp819
S'build'
p820
(dp821
S'core'
p822
S'arduino'
p823
sS'mcu'
p824
S'atmega328p'
p825
sS'f_cpu'
p826
S'8000000L'
p827
sS'variant'
p828
S'standard'
p829
ssS'bootloader'
p830
(dp831
S'extended_fuses'
p832
S'0x05'
p833
sS'high_fuses'
p834
S'0xDA'
p835
sS'low_fuses'
p836
S'0xFF'
p837
sS'lock_bits'
p838
S'0x0F'
p839
sS'file'
p840
S'ATmegaBOOT_168_atmega328_pro_8MHz.hex'
p841
sS'path'
p842
S'atmega'
p843
sS'unlock_bits'
p844
S'0x3F'
p845
ssS'name'
p846
S'Arduino Pro or Pro Mini (3.3V, 8 MHz) w/ ATmega328'
p847
sS'upload'
p848
(dp849
S'speed'
p850
S'57600'
p851
sS'maximum_size'
p852
S'30720'
p853
sS'protocol'
p854
S'arduino'
p855
ssaa(lp856
S'pro'
p857
a(dp858
S'build'
p859
(dp860
S'core'
p861
S'arduino'
p862
sS'mcu'
p863
S'atmega168'
p864
sS'f_cpu'
p865
S'8000000L'
p866
sS'variant'
p867
S'standard'
p868
ssS'bootloader'
p869
(dp870
S'extended_fuses'
p871
S'0x00'
p872
sS'high_fuses'
p873
S'0xdd'
p874
sS'low_fuses'
p875
S'0xc6'
p876
sS'lock_bits'
p877
S'0x0F'
p878
sS'file'
p879
S'ATmegaBOOT_168_pro_8MHz.hex'
p880
sS'path'
p881
S'atmega'
p882
sS'unlock_bits'
p883
S'0x3F'
p884
ssS'name'
p885
S'Arduino Pro or Pro Mini (3.3V, 8 MHz) w/ ATmega168'
p886
sS'upload'
p887
(dp888
S'speed'
p889
S'19200'
p890
sS'maximum_size'
p891
S'14336'
p892
sS'protocol'
p893
S'arduino'
p894
ssaa(lp895
S'atmega168'
p896
a(dp897
S'build'
p898
(dp899
S'core'
p900
S'arduino'
p901
sS'mcu'
p902
S'atmega168'
p903
sS'f_cpu'
p904
S'16000000L'
p905
sS'variant'
p906
S'standard'
p907
ssS'bootloader'
p908
(dp909
S'extended_fuses'
p910
S'0x00'
p911
sS'high_fuses'
p912
S'0xdd'
p913
sS'low_fuses'
p914
S'0xff'
p915
sS'lock_bits'
p916
S'0x0F'
p917
sS'file'
p918
S'ATmegaBOOT_168_ng.hex'
p919
sS'path'
p920
S'atmega'
p921
sS'unlock_bits'
p922
S'0x3F'
p923
ssS'name'
p924
S'Arduino NG or older w/ ATmega168'
p925
sS'upload'
p926
(dp927
S'speed'
p928
S'19200'
p929
sS'maximum_size'
p930
S'14336'
p931
sS'protocol'
p932
S'arduino'
p933
ssaa(lp934
S'atmega8'
p935
a(dp936
S'build'
p937
(dp938
S'core'
p939
S'arduino'
p940
sS'mcu'
p941
S'atmega8'
p942
sS'f_cpu'
p943
S'16000000L'
p944
sS'variant'
p945
S'standard'
p946
ssS'bootloader'
p947
(dp948
S'high_fuses'
p949
S'0xca'
p950
sS'low_fuses'
p951
S'0xdf'
p952
sS'lock_bits'
p953
S'0x0F'
p954
sS'file'
p955
S'ATmegaBOOT.hex'
p956
sS'path'
p957
S'atmega8'
p958
sS'unlock_bits'
p959
S'0x3F'
p960
ssS'name'
p961
S'Arduino NG or older w/ ATmega8'
p962
sS'upload'
p963
(dp964
S'speed'
p965
S'19200'
p966
sS'maximum_size'
p967
S'7168'
p968
sS'protocol'
p969
S'arduino'
p970
ssaatp971
Rp972
(dp973
S'default'
p974
S'uno'
p975
sbtp976
a(S'cxx'
p977
S'/usr/bin/avr-g++'
p978
tp979
a.